; ModuleID = '30/1076.c'
source_filename = "30/1076.c"
target datalayout = "e-m:e-p270:32:32-p271:32:32-p272:64:64-i64:64-f80:128-n8:16:32:64-S128"
target triple = "x86_64-pc-linux-gnu"

@.str = private unnamed_addr constant [3 x i8] c"%d\00", align 1
@t = common dso_local global i32 0, align 4

; Function Attrs: noinline nounwind uwtable
define dso_local i32 @fun(i32 %0) #0 {
  %2 = alloca i32, align 4
  %3 = alloca i32, align 4
  %4 = alloca i32, align 4
  store i32 %0, i32* %3, align 4
  %5 = load i32, i32* %3, align 4
  %6 = srem i32 %5, 7
  %7 = icmp eq i32 %6, 0
  br i1 %7, label %8, label %9

8:                                                ; preds = %1
  store i32 0, i32* %2, align 4
  br label %31

9:                                                ; preds = %1
  br label %10

10:                                               ; preds = %22, %9
  %11 = load i32, i32* %3, align 4
  %12 = icmp sge i32 %11, 10
  br i1 %12, label %13, label %25

13:                                               ; preds = %10
  %14 = load i32, i32* %3, align 4
  %15 = load i32, i32* %3, align 4
  %16 = sdiv i32 %15, 10
  %17 = mul nsw i32 %16, 10
  %18 = sub nsw i32 %14, %17
  store i32 %18, i32* %4, align 4
  %19 = load i32, i32* %4, align 4
  %20 = icmp eq i32 %19, 7
  br i1 %20, label %21, label %22

21:                                               ; preds = %13
  store i32 0, i32* %2, align 4
  br label %31

22:                                               ; preds = %13
  %23 = load i32, i32* %3, align 4
  %24 = sdiv i32 %23, 10
  store i32 %24, i32* %3, align 4
  br label %10

25:                                               ; preds = %10
  %26 = load i32, i32* %3, align 4
  %27 = srem i32 %26, 7
  %28 = icmp eq i32 %27, 0
  br i1 %28, label %29, label %30

29:                                               ; preds = %25
  store i32 0, i32* %2, align 4
  br label %31

30:                                               ; preds = %25
  store i32 1, i32* %2, align 4
  br label %31

31:                                               ; preds = %30, %29, %21, %8
  %32 = load i32, i32* %2, align 4
  ret i32 %32
}

; Function Attrs: noinline nounwind uwtable
define dso_local i32 @main() #0 {
  %1 = alloca i32, align 4
  %2 = alloca i32, align 4
  %3 = alloca i32, align 4
  %4 = alloca i32, align 4
  store i32 0, i32* %1, align 4
  store i32 0, i32* %4, align 4
  %5 = call i32 (i8*, ...) @__isoc99_scanf(i8* getelementptr inbounds ([3 x i8], [3 x i8]* @.str, i64 0, i64 0), i32* %2)
  store i32 1, i32* %3, align 4
  br label %6

6:                                                ; preds = %19, %0
  %7 = load i32, i32* %3, align 4
  %8 = load i32, i32* %2, align 4
  %9 = icmp sle i32 %7, %8
  br i1 %9, label %10, label %22

10:                                               ; preds = %6
  %11 = load i32, i32* %4, align 4
  %12 = load i32, i32* %3, align 4
  %13 = load i32, i32* %3, align 4
  %14 = mul nsw i32 %12, %13
  %15 = load i32, i32* %3, align 4
  %16 = call i32 @fun(i32 %15)
  %17 = mul nsw i32 %14, %16
  %18 = add nsw i32 %11, %17
  store i32 %18, i32* %4, align 4
  br label %19

19:                                               ; preds = %10
  %20 = load i32, i32* %3, align 4
  %21 = add nsw i32 %20, 1
  store i32 %21, i32* %3, align 4
  br label %6

22:                                               ; preds = %6
  %23 = load i32, i32* %4, align 4
  %24 = call i32 (i8*, ...) @printf(i8* getelementptr inbounds ([3 x i8], [3 x i8]* @.str, i64 0, i64 0), i32 %23)
  ret i32 0
}

declare dso_local i32 @__isoc99_scanf(i8*, ...) #1

declare dso_local i32 @printf(i8*, ...) #1


!llvm.module.flags = !{!0}
!llvm.ident = !{!1}

!0 = !{i32 1, !"wchar_size", i32 4}
!1 = !{!"clang version 10.0.0-4ubuntu1 "}
